target datalayout = "e-m:e-p270:32:32-p271:32:32-p272:64:64-i64:64-i128:128-f80:128-n8:16:32:64-S128"
target triple = "x86_64-pc-linux-gnu"

%"struct.cv::phase_unwrapping::HistogramPhaseUnwrapping::Params" = type { i32, i32, float, i32, i32 }
%"class.cv::phase_unwrapping::HistogramPhaseUnwrapping_Impl" = type { %"class.cv::phase_unwrapping::HistogramPhaseUnwrapping", %"struct.cv::phase_unwrapping::HistogramPhaseUnwrapping::Params", %"class.std::vector", %"class.cv::phase_unwrapping::HistogramPhaseUnwrapping_Impl::Histogram" }
%"class.cv::phase_unwrapping::HistogramPhaseUnwrapping" = type { %"class.cv::phase_unwrapping::PhaseUnwrapping" }
%"class.cv::phase_unwrapping::PhaseUnwrapping" = type { %"class.cv::Algorithm" }
%"class.cv::Algorithm" = type { ptr }
%"class.std::vector" = type { %"struct.std::_Vector_base" }
%"struct.std::_Vector_base" = type { %"struct.std::_Vector_base<cv::phase_unwrapping::HistogramPhaseUnwrapping_Impl::Pixel, std::allocator<cv::phase_unwrapping::HistogramPhaseUnwrapping_Impl::Pixel>>::_Vector_impl" }
%"struct.std::_Vector_base<cv::phase_unwrapping::HistogramPhaseUnwrapping_Impl::Pixel, std::allocator<cv::phase_unwrapping::HistogramPhaseUnwrapping_Impl::Pixel>>::_Vector_impl" = type { %"struct.std::_Vector_base<cv::phase_unwrapping::HistogramPhaseUnwrapping_Impl::Pixel, std::allocator<cv::phase_unwrapping::HistogramPhaseUnwrapping_Impl::Pixel>>::_Vector_impl_data" }
%"struct.std::_Vector_base<cv::phase_unwrapping::HistogramPhaseUnwrapping_Impl::Pixel, std::allocator<cv::phase_unwrapping::HistogramPhaseUnwrapping_Impl::Pixel>>::_Vector_impl_data" = type { ptr, ptr, ptr }
%"class.cv::phase_unwrapping::HistogramPhaseUnwrapping_Impl::Histogram" = type { %"class.std::vector.0", float, float, float, i32, i32, i32 }
%"class.std::vector.0" = type { %"struct.std::_Vector_base.1" }
%"struct.std::_Vector_base.1" = type { %"struct.std::_Vector_base<cv::phase_unwrapping::HistogramPhaseUnwrapping_Impl::HistogramBin, std::allocator<cv::phase_unwrapping::HistogramPhaseUnwrapping_Impl::HistogramBin>>::_Vector_impl" }
%"struct.std::_Vector_base<cv::phase_unwrapping::HistogramPhaseUnwrapping_Impl::HistogramBin, std::allocator<cv::phase_unwrapping::HistogramPhaseUnwrapping_Impl::HistogramBin>>::_Vector_impl" = type { %"struct.std::_Vector_base<cv::phase_unwrapping::HistogramPhaseUnwrapping_Impl::HistogramBin, std::allocator<cv::phase_unwrapping::HistogramPhaseUnwrapping_Impl::HistogramBin>>::_Vector_impl_data" }
%"struct.std::_Vector_base<cv::phase_unwrapping::HistogramPhaseUnwrapping_Impl::HistogramBin, std::allocator<cv::phase_unwrapping::HistogramPhaseUnwrapping_Impl::HistogramBin>>::_Vector_impl_data" = type { ptr, ptr, ptr }
%"class.cv::phase_unwrapping::HistogramPhaseUnwrapping_Impl::Pixel" = type <{ float, i32, i8, [3 x i8], float, i32, i32, i32, i8, [3 x i8] }>

; Function Attrs: mustprogress nounwind uwtable
define noundef i32 @_ZN2cv16phase_unwrapping29HistogramPhaseUnwrapping_Impl5Pixel8getIndexEv(ptr noundef nonnull align 4 dereferenceable(29) %0) #0 align 2 {
  %2 = alloca ptr, align 8
  store ptr %0, ptr %2, align 8, !tbaa !33
  %3 = load ptr, ptr %2, align 8
  %4 = getelementptr inbounds nuw %"class.cv::phase_unwrapping::HistogramPhaseUnwrapping_Impl::Pixel", ptr %3, i32 0, i32 1
  %5 = load i32, ptr %4, align 4, !tbaa !38
  ret i32 %5
}

; Function Attrs: mustprogress nounwind uwtable
define noundef zeroext i1 @_ZN2cv16phase_unwrapping29HistogramPhaseUnwrapping_Impl5Pixel11getValidityEv(ptr noundef nonnull align 4 dereferenceable(29) %0) #0 align 2 {
  %2 = alloca ptr, align 8
  store ptr %0, ptr %2, align 8, !tbaa !33
  %3 = load ptr, ptr %2, align 8
  %4 = getelementptr inbounds nuw %"class.cv::phase_unwrapping::HistogramPhaseUnwrapping_Impl::Pixel", ptr %3, i32 0, i32 2
  %5 = load i8, ptr %4, align 4, !tbaa !41, !range !39, !noundef !40
  %6 = trunc i8 %5 to i1
  ret i1 %6
}

; Function Attrs: mustprogress nounwind uwtable
define linkonce_odr hidden noundef nonnull align 4 dereferenceable(29) ptr @_ZNSt6vectorIN2cv16phase_unwrapping29HistogramPhaseUnwrapping_Impl5PixelESaIS3_EEixEm(ptr noundef nonnull align 8 dereferenceable(24) %0, i64 noundef %1) #0 comdat align 2 {
  %3 = alloca ptr, align 8
  %4 = alloca i64, align 8
  store ptr %0, ptr %3, align 8, !tbaa !27
  store i64 %1, ptr %4, align 8, !tbaa !88
  %5 = load ptr, ptr %3, align 8
  %6 = getelementptr inbounds nuw %"struct.std::_Vector_base", ptr %5, i32 0, i32 0
  %7 = getelementptr inbounds nuw %"struct.std::_Vector_base<cv::phase_unwrapping::HistogramPhaseUnwrapping_Impl::Pixel, std::allocator<cv::phase_unwrapping::HistogramPhaseUnwrapping_Impl::Pixel>>::_Vector_impl_data", ptr %6, i32 0, i32 0
  %8 = load ptr, ptr %7, align 8, !tbaa !29
  %9 = load i64, ptr %4, align 8, !tbaa !88
  %10 = getelementptr inbounds nuw %"class.cv::phase_unwrapping::HistogramPhaseUnwrapping_Impl::Pixel", ptr %8, i64 %9
  ret ptr %10
}

; Function Attrs: mustprogress nounwind uwtable
define linkonce_odr hidden noundef i64 @_ZNKSt6vectorIN2cv16phase_unwrapping29HistogramPhaseUnwrapping_Impl5PixelESaIS3_EE4sizeEv(ptr noundef nonnull align 8 dereferenceable(24) %0) #0 comdat align 2 {
  %2 = alloca ptr, align 8
  store ptr %0, ptr %2, align 8, !tbaa !27
  %3 = load ptr, ptr %2, align 8
  %4 = getelementptr inbounds nuw %"struct.std::_Vector_base", ptr %3, i32 0, i32 0
  %5 = getelementptr inbounds nuw %"struct.std::_Vector_base<cv::phase_unwrapping::HistogramPhaseUnwrapping_Impl::Pixel, std::allocator<cv::phase_unwrapping::HistogramPhaseUnwrapping_Impl::Pixel>>::_Vector_impl_data", ptr %4, i32 0, i32 1
  %6 = load ptr, ptr %5, align 8, !tbaa !32
  %7 = getelementptr inbounds nuw %"struct.std::_Vector_base", ptr %3, i32 0, i32 0
  %8 = getelementptr inbounds nuw %"struct.std::_Vector_base<cv::phase_unwrapping::HistogramPhaseUnwrapping_Impl::Pixel, std::allocator<cv::phase_unwrapping::HistogramPhaseUnwrapping_Impl::Pixel>>::_Vector_impl_data", ptr %7, i32 0, i32 0
  %9 = load ptr, ptr %8, align 8, !tbaa !29
  %10 = ptrtoint ptr %6 to i64
  %11 = ptrtoint ptr %9 to i64
  %12 = sub i64 %10, %11
  %13 = sdiv exact i64 %12, 32
  ret i64 %13
}

; Function Attrs: mustprogress uwtable
define void @_ZN2cv16phase_unwrapping29HistogramPhaseUnwrapping_Impl41computeEdgesReliabilityAndCreateHistogramEv(ptr noundef nonnull align 8 dereferenceable(104) %0) #1 align 2 {
  %2 = alloca ptr, align 8
  %3 = alloca i32, align 4
  %4 = alloca i32, align 4
  %5 = alloca i32, align 4
  %6 = alloca i32, align 4
  %7 = alloca i32, align 4
  %8 = alloca i32, align 4
  %9 = alloca i32, align 4
  %10 = alloca i32, align 4
  store ptr %0, ptr %2, align 8, !tbaa !16
  %11 = load ptr, ptr %2, align 8
  call void @llvm.lifetime.start.p0(i64 4, ptr %3) #18
  call void @llvm.lifetime.start.p0(i64 4, ptr %4) #18
  %12 = getelementptr inbounds nuw %"class.cv::phase_unwrapping::HistogramPhaseUnwrapping_Impl", ptr %11, i32 0, i32 3
  %13 = getelementptr inbounds nuw %"class.cv::phase_unwrapping::HistogramPhaseUnwrapping_Impl", ptr %11, i32 0, i32 1
  %14 = getelementptr inbounds nuw %"struct.cv::phase_unwrapping::HistogramPhaseUnwrapping::Params", ptr %13, i32 0, i32 2
  %15 = load float, ptr %14, align 8, !tbaa !126
  %16 = getelementptr inbounds nuw %"class.cv::phase_unwrapping::HistogramPhaseUnwrapping_Impl", ptr %11, i32 0, i32 1
  %17 = getelementptr inbounds nuw %"struct.cv::phase_unwrapping::HistogramPhaseUnwrapping::Params", ptr %16, i32 0, i32 3
  %18 = load i32, ptr %17, align 4, !tbaa !127
  %19 = getelementptr inbounds nuw %"class.cv::phase_unwrapping::HistogramPhaseUnwrapping_Impl", ptr %11, i32 0, i32 1
  %20 = getelementptr inbounds nuw %"struct.cv::phase_unwrapping::HistogramPhaseUnwrapping::Params", ptr %19, i32 0, i32 4
  %21 = load i32, ptr %20, align 8, !tbaa !128
  call void @_ZN2cv16phase_unwrapping29HistogramPhaseUnwrapping_Impl9Histogram10createBinsEfii(ptr noundef nonnull align 8 dereferenceable(48) %12, float noundef %15, i32 noundef %18, i32 noundef %21)
  call void @llvm.lifetime.start.p0(i64 4, ptr %5) #18
  %22 = getelementptr inbounds nuw %"class.cv::phase_unwrapping::HistogramPhaseUnwrapping_Impl", ptr %11, i32 0, i32 2
  %23 = call noundef i64 @_ZNKSt6vectorIN2cv16phase_unwrapping29HistogramPhaseUnwrapping_Impl5PixelESaIS3_EE4sizeEv(ptr noundef nonnull align 8 dereferenceable(24) %22) #18
  %24 = trunc i64 %23 to i32
  store i32 %24, ptr %5, align 4, !tbaa !23
  call void @llvm.lifetime.start.p0(i64 4, ptr %6) #18
  store i32 0, ptr %6, align 4, !tbaa !23
  br label %25

25:                                               ; preds = %143, %1
  %26 = load i32, ptr %6, align 4, !tbaa !23
  %27 = load i32, ptr %5, align 4, !tbaa !23
  %28 = icmp slt i32 %26, %27
  br i1 %28, label %30, label %29

29:                                               ; preds = %25
  call void @llvm.lifetime.end.p0(i64 4, ptr %6) #18
  br label %146

30:                                               ; preds = %25
  %31 = getelementptr inbounds nuw %"class.cv::phase_unwrapping::HistogramPhaseUnwrapping_Impl", ptr %11, i32 0, i32 2
  %32 = load i32, ptr %6, align 4, !tbaa !23
  %33 = sext i32 %32 to i64
  %34 = call noundef nonnull align 4 dereferenceable(29) ptr @_ZNSt6vectorIN2cv16phase_unwrapping29HistogramPhaseUnwrapping_Impl5PixelESaIS3_EEixEm(ptr noundef nonnull align 8 dereferenceable(24) %31, i64 noundef %33) #18
  %35 = call noundef zeroext i1 @_ZN2cv16phase_unwrapping29HistogramPhaseUnwrapping_Impl5Pixel11getValidityEv(ptr noundef nonnull align 4 dereferenceable(29) %34)
  br i1 %35, label %36, label %142

36:                                               ; preds = %30
  %37 = getelementptr inbounds nuw %"class.cv::phase_unwrapping::HistogramPhaseUnwrapping_Impl", ptr %11, i32 0, i32 2
  %38 = load i32, ptr %6, align 4, !tbaa !23
  %39 = sext i32 %38 to i64
  %40 = call noundef nonnull align 4 dereferenceable(29) ptr @_ZNSt6vectorIN2cv16phase_unwrapping29HistogramPhaseUnwrapping_Impl5PixelESaIS3_EEixEm(ptr noundef nonnull align 8 dereferenceable(24) %37, i64 noundef %39) #18
  %41 = call noundef i32 @_ZN2cv16phase_unwrapping29HistogramPhaseUnwrapping_Impl5Pixel8getIndexEv(ptr noundef nonnull align 4 dereferenceable(29) %40)
  %42 = getelementptr inbounds nuw %"class.cv::phase_unwrapping::HistogramPhaseUnwrapping_Impl", ptr %11, i32 0, i32 1
  %43 = getelementptr inbounds nuw %"struct.cv::phase_unwrapping::HistogramPhaseUnwrapping::Params", ptr %42, i32 0, i32 0
  %44 = load i32, ptr %43, align 8, !tbaa !104
  %45 = sdiv i32 %41, %44
  store i32 %45, ptr %3, align 4, !tbaa !23
  %46 = getelementptr inbounds nuw %"class.cv::phase_unwrapping::HistogramPhaseUnwrapping_Impl", ptr %11, i32 0, i32 2
  %47 = load i32, ptr %6, align 4, !tbaa !23
  %48 = sext i32 %47 to i64
  %49 = call noundef nonnull align 4 dereferenceable(29) ptr @_ZNSt6vectorIN2cv16phase_unwrapping29HistogramPhaseUnwrapping_Impl5PixelESaIS3_EEixEm(ptr noundef nonnull align 8 dereferenceable(24) %46, i64 noundef %48) #18
  %50 = call noundef i32 @_ZN2cv16phase_unwrapping29HistogramPhaseUnwrapping_Impl5Pixel8getIndexEv(ptr noundef nonnull align 4 dereferenceable(29) %49)
  %51 = getelementptr inbounds nuw %"class.cv::phase_unwrapping::HistogramPhaseUnwrapping_Impl", ptr %11, i32 0, i32 1
  %52 = getelementptr inbounds nuw %"struct.cv::phase_unwrapping::HistogramPhaseUnwrapping::Params", ptr %51, i32 0, i32 0
  %53 = load i32, ptr %52, align 8, !tbaa !104
  %54 = srem i32 %50, %53
  store i32 %54, ptr %4, align 4, !tbaa !23
  %55 = load i32, ptr %3, align 4, !tbaa !23
  %56 = getelementptr inbounds nuw %"class.cv::phase_unwrapping::HistogramPhaseUnwrapping_Impl", ptr %11, i32 0, i32 1
  %57 = getelementptr inbounds nuw %"struct.cv::phase_unwrapping::HistogramPhaseUnwrapping::Params", ptr %56, i32 0, i32 1
  %58 = load i32, ptr %57, align 4, !tbaa !97
  %59 = sub nsw i32 %58, 1
  %60 = icmp ne i32 %55, %59
  br i1 %60, label %61, label %89

61:                                               ; preds = %36
  %62 = load i32, ptr %4, align 4, !tbaa !23
  %63 = getelementptr inbounds nuw %"class.cv::phase_unwrapping::HistogramPhaseUnwrapping_Impl", ptr %11, i32 0, i32 1
  %64 = getelementptr inbounds nuw %"struct.cv::phase_unwrapping::HistogramPhaseUnwrapping::Params", ptr %63, i32 0, i32 0
  %65 = load i32, ptr %64, align 8, !tbaa !104
  %66 = sub nsw i32 %65, 1
  %67 = icmp ne i32 %62, %66
  br i1 %67, label %68, label %89

68:                                               ; preds = %61
  call void @llvm.lifetime.start.p0(i64 4, ptr %7) #18
  call void @llvm.lifetime.start.p0(i64 4, ptr %8) #18
  %69 = load i32, ptr %3, align 4, !tbaa !23
  %70 = getelementptr inbounds nuw %"class.cv::phase_unwrapping::HistogramPhaseUnwrapping_Impl", ptr %11, i32 0, i32 1
  %71 = getelementptr inbounds nuw %"struct.cv::phase_unwrapping::HistogramPhaseUnwrapping::Params", ptr %70, i32 0, i32 0
  %72 = load i32, ptr %71, align 8, !tbaa !104
  %73 = mul nsw i32 %69, %72
  %74 = load i32, ptr %4, align 4, !tbaa !23
  %75 = add nsw i32 %73, %74
  %76 = add nsw i32 %75, 1
  store i32 %76, ptr %7, align 4, !tbaa !23
  %77 = load i32, ptr %3, align 4, !tbaa !23
  %78 = add nsw i32 %77, 1
  %79 = getelementptr inbounds nuw %"class.cv::phase_unwrapping::HistogramPhaseUnwrapping_Impl", ptr %11, i32 0, i32 1
  %80 = getelementptr inbounds nuw %"struct.cv::phase_unwrapping::HistogramPhaseUnwrapping::Params", ptr %79, i32 0, i32 0
  %81 = load i32, ptr %80, align 8, !tbaa !104
  %82 = mul nsw i32 %78, %81
  %83 = load i32, ptr %4, align 4, !tbaa !23
  %84 = add nsw i32 %82, %83
  store i32 %84, ptr %8, align 4, !tbaa !23
  %85 = load i32, ptr %6, align 4, !tbaa !23
  %86 = load i32, ptr %7, align 4, !tbaa !23
  call void @_ZN2cv16phase_unwrapping29HistogramPhaseUnwrapping_Impl17createAndSortEdgeEii(ptr noundef nonnull align 8 dereferenceable(104) %11, i32 noundef %85, i32 noundef %86)
  %87 = load i32, ptr %6, align 4, !tbaa !23
  %88 = load i32, ptr %8, align 4, !tbaa !23
  call void @_ZN2cv16phase_unwrapping29HistogramPhaseUnwrapping_Impl17createAndSortEdgeEii(ptr noundef nonnull align 8 dereferenceable(104) %11, i32 noundef %87, i32 noundef %88)
  call void @llvm.lifetime.end.p0(i64 4, ptr %8) #18
  call void @llvm.lifetime.end.p0(i64 4, ptr %7) #18
  br label %141

89:                                               ; preds = %61, %36
  %90 = load i32, ptr %3, align 4, !tbaa !23
  %91 = getelementptr inbounds nuw %"class.cv::phase_unwrapping::HistogramPhaseUnwrapping_Impl", ptr %11, i32 0, i32 1
  %92 = getelementptr inbounds nuw %"struct.cv::phase_unwrapping::HistogramPhaseUnwrapping::Params", ptr %91, i32 0, i32 1
  %93 = load i32, ptr %92, align 4, !tbaa !97
  %94 = sub nsw i32 %93, 1
  %95 = icmp ne i32 %90, %94
  br i1 %95, label %96, label %114

96:                                               ; preds = %89
  %97 = load i32, ptr %4, align 4, !tbaa !23
  %98 = getelementptr inbounds nuw %"class.cv::phase_unwrapping::HistogramPhaseUnwrapping_Impl", ptr %11, i32 0, i32 1
  %99 = getelementptr inbounds nuw %"struct.cv::phase_unwrapping::HistogramPhaseUnwrapping::Params", ptr %98, i32 0, i32 0
  %100 = load i32, ptr %99, align 8, !tbaa !104
  %101 = sub nsw i32 %100, 1
  %102 = icmp eq i32 %97, %101
  br i1 %102, label %103, label %114

103:                                              ; preds = %96
  call void @llvm.lifetime.start.p0(i64 4, ptr %9) #18
  %104 = load i32, ptr %3, align 4, !tbaa !23
  %105 = add nsw i32 %104, 1
  %106 = getelementptr inbounds nuw %"class.cv::phase_unwrapping::HistogramPhaseUnwrapping_Impl", ptr %11, i32 0, i32 1
  %107 = getelementptr inbounds nuw %"struct.cv::phase_unwrapping::HistogramPhaseUnwrapping::Params", ptr %106, i32 0, i32 0
  %108 = load i32, ptr %107, align 8, !tbaa !104
  %109 = mul nsw i32 %105, %108
  %110 = load i32, ptr %4, align 4, !tbaa !23
  %111 = add nsw i32 %109, %110
  store i32 %111, ptr %9, align 4, !tbaa !23
  %112 = load i32, ptr %6, align 4, !tbaa !23
  %113 = load i32, ptr %9, align 4, !tbaa !23
  call void @_ZN2cv16phase_unwrapping29HistogramPhaseUnwrapping_Impl17createAndSortEdgeEii(ptr noundef nonnull align 8 dereferenceable(104) %11, i32 noundef %112, i32 noundef %113)
  call void @llvm.lifetime.end.p0(i64 4, ptr %9) #18
  br label %140

114:                                              ; preds = %96, %89
  %115 = load i32, ptr %3, align 4, !tbaa !23
  %116 = getelementptr inbounds nuw %"class.cv::phase_unwrapping::HistogramPhaseUnwrapping_Impl", ptr %11, i32 0, i32 1
  %117 = getelementptr inbounds nuw %"struct.cv::phase_unwrapping::HistogramPhaseUnwrapping::Params", ptr %116, i32 0, i32 1
  %118 = load i32, ptr %117, align 4, !tbaa !97
  %119 = sub nsw i32 %118, 1
  %120 = icmp eq i32 %115, %119
  br i1 %120, label %121, label %139

121:                                              ; preds = %114
  %122 = load i32, ptr %4, align 4, !tbaa !23
  %123 = getelementptr inbounds nuw %"class.cv::phase_unwrapping::HistogramPhaseUnwrapping_Impl", ptr %11, i32 0, i32 1
  %124 = getelementptr inbounds nuw %"struct.cv::phase_unwrapping::HistogramPhaseUnwrapping::Params", ptr %123, i32 0, i32 0
  %125 = load i32, ptr %124, align 8, !tbaa !104
  %126 = sub nsw i32 %125, 1
  %127 = icmp ne i32 %122, %126
  br i1 %127, label %128, label %139

128:                                              ; preds = %121
  call void @llvm.lifetime.start.p0(i64 4, ptr %10) #18
  %129 = load i32, ptr %3, align 4, !tbaa !23
  %130 = getelementptr inbounds nuw %"class.cv::phase_unwrapping::HistogramPhaseUnwrapping_Impl", ptr %11, i32 0, i32 1
  %131 = getelementptr inbounds nuw %"struct.cv::phase_unwrapping::HistogramPhaseUnwrapping::Params", ptr %130, i32 0, i32 0
  %132 = load i32, ptr %131, align 8, !tbaa !104
  %133 = mul nsw i32 %129, %132
  %134 = load i32, ptr %4, align 4, !tbaa !23
  %135 = add nsw i32 %133, %134
  %136 = add nsw i32 %135, 1
  store i32 %136, ptr %10, align 4, !tbaa !23
  %137 = load i32, ptr %6, align 4, !tbaa !23
  %138 = load i32, ptr %10, align 4, !tbaa !23
  call void @_ZN2cv16phase_unwrapping29HistogramPhaseUnwrapping_Impl17createAndSortEdgeEii(ptr noundef nonnull align 8 dereferenceable(104) %11, i32 noundef %137, i32 noundef %138)
  call void @llvm.lifetime.end.p0(i64 4, ptr %10) #18
  br label %139

139:                                              ; preds = %128, %121, %114
  br label %140

140:                                              ; preds = %139, %103
  br label %141

141:                                              ; preds = %140, %68
  br label %142

142:                                              ; preds = %141, %30
  br label %143

143:                                              ; preds = %142
  %144 = load i32, ptr %6, align 4, !tbaa !23
  %145 = add nsw i32 %144, 1
  store i32 %145, ptr %6, align 4, !tbaa !23
  br label %25, !llvm.loop !129

146:                                              ; preds = %29
  call void @llvm.lifetime.end.p0(i64 4, ptr %5) #18
  call void @llvm.lifetime.end.p0(i64 4, ptr %4) #18
  call void @llvm.lifetime.end.p0(i64 4, ptr %3) #18
  ret void
}