; Function Attrs: mustprogress uwtable
define void @_ZN2cv16phase_unwrapping29HistogramPhaseUnwrapping_Impl41computeEdgesReliabilityAndCreateHistogramEv(ptr noundef nonnull align 8 dereferenceable(104) initializes((80, 104)) %0) local_unnamed_addr #1 align 2 {
  %2 = getelementptr inbounds nuw i8, ptr %0, i64 56
  %3 = getelementptr inbounds nuw i8, ptr %0, i64 8
  %4 = getelementptr inbounds nuw i8, ptr %0, i64 16
  %5 = load float, ptr %4, align 8, !tbaa !144
  %6 = getelementptr inbounds nuw i8, ptr %0, i64 20
  %7 = load i32, ptr %6, align 4, !tbaa !145
  %8 = getelementptr inbounds nuw i8, ptr %0, i64 24
  %9 = load i32, ptr %8, align 8, !tbaa !146
  tail call void @_ZN2cv16phase_unwrapping29HistogramPhaseUnwrapping_Impl9Histogram10createBinsEfii(ptr noundef nonnull align 8 dereferenceable(48) %2, float noundef %5, i32 noundef %7, i32 noundef %9)
  %10 = getelementptr inbounds nuw i8, ptr %0, i64 32
  %11 = getelementptr inbounds nuw i8, ptr %0, i64 40
  %12 = load ptr, ptr %11, align 8, !tbaa !121
  %13 = load ptr, ptr %10, align 8, !tbaa !18
  %14 = ptrtoint ptr %12 to i64
  %15 = ptrtoint ptr %13 to i64
  %16 = sub i64 %14, %15
  %17 = lshr exact i64 %16, 5
  %18 = trunc i64 %17 to i32
  %19 = icmp sgt i32 %18, 0
  br i1 %19, label %.lr.ph, label %._crit_edge

.lr.ph:                                           ; preds = %1
  %20 = getelementptr inbounds nuw i8, ptr %0, i64 12
  %wide.trip.count = and i64 %17, 2147483647
  br label %21

._crit_edge:                                      ; preds = %57, %1
  ret void

21:                                               ; preds = %.lr.ph, %57
  %indvars.iv = phi i64 [ 0, %.lr.ph ], [ %indvars.iv.next, %57 ]
  %22 = load ptr, ptr %10, align 8, !tbaa !18
  %23 = getelementptr inbounds nuw %"class.cv::phase_unwrapping::HistogramPhaseUnwrapping_Impl::Pixel", ptr %22, i64 %indvars.iv
  %24 = getelementptr inbounds nuw i8, ptr %23, i64 8
  %25 = load i8, ptr %24, align 4, !tbaa !26, !range !32, !noundef !33
  %26 = trunc nuw i8 %25 to i1
  br i1 %26, label %27, label %57

27:                                               ; preds = %21
  %28 = getelementptr inbounds nuw i8, ptr %23, i64 4
  %29 = load i32, ptr %28, align 4, !tbaa !25
  %30 = load i32, ptr %3, align 8, !tbaa !93
  %31 = sdiv i32 %29, %30
  %32 = srem i32 %29, %30
  %33 = load i32, ptr %20, align 4, !tbaa !86
  %34 = add nsw i32 %33, -1
  %.not = icmp eq i32 %31, %34
  %35 = add nsw i32 %30, -1
  %.not32 = icmp eq i32 %32, %35
  %or.cond = select i1 %.not, i1 true, i1 %.not32
  br i1 %or.cond, label %44, label %36

36:                                               ; preds = %27
  %37 = mul nsw i32 %31, %30
  %38 = add i32 %32, 1
  %39 = add i32 %38, %37
  %40 = add nsw i32 %31, 1
  %41 = mul nsw i32 %40, %30
  %42 = add nsw i32 %41, %32
  %43 = trunc nuw nsw i64 %indvars.iv to i32
  tail call void @_ZN2cv16phase_unwrapping29HistogramPhaseUnwrapping_Impl17createAndSortEdgeEii(ptr noundef nonnull align 8 dereferenceable(104) %0, i32 noundef %43, i32 noundef %39)
  tail call void @_ZN2cv16phase_unwrapping29HistogramPhaseUnwrapping_Impl17createAndSortEdgeEii(ptr noundef nonnull align 8 dereferenceable(104) %0, i32 noundef %43, i32 noundef %42)
  br label %57

44:                                               ; preds = %27
  br i1 %.not, label %51, label %45

45:                                               ; preds = %44
  br i1 %.not32, label %46, label %57

46:                                               ; preds = %45
  %47 = add nsw i32 %31, 1
  %48 = mul nsw i32 %47, %30
  %49 = add nsw i32 %48, %32
  %50 = trunc nuw nsw i64 %indvars.iv to i32
  tail call void @_ZN2cv16phase_unwrapping29HistogramPhaseUnwrapping_Impl17createAndSortEdgeEii(ptr noundef nonnull align 8 dereferenceable(104) %0, i32 noundef %50, i32 noundef %49)
  br label %57

51:                                               ; preds = %44
  br i1 %.not32, label %57, label %52

52:                                               ; preds = %51
  %53 = mul nsw i32 %31, %30
  %54 = add i32 %32, 1
  %55 = add i32 %54, %53
  %56 = trunc nuw nsw i64 %indvars.iv to i32
  tail call void @_ZN2cv16phase_unwrapping29HistogramPhaseUnwrapping_Impl17createAndSortEdgeEii(ptr noundef nonnull align 8 dereferenceable(104) %0, i32 noundef %56, i32 noundef %55)
  br label %57

57:                                               ; preds = %45, %21, %46, %52, %51, %36
  %indvars.iv.next = add nuw nsw i64 %indvars.iv, 1
  %exitcond.not = icmp eq i64 %indvars.iv.next, %wide.trip.count
  br i1 %exitcond.not, label %._crit_edge, label %21, !llvm.loop !147
}